target datalayout = "e-m:e-p270:32:32-p271:32:32-p272:64:64-i64:64-i128:128-f80:128-n8:16:32:64-S128"
target triple = "x86_64-unknown-linux-gnu"

%struct.VirtIOGPUBase = type { %struct.VirtIODevice, ptr, %struct.virtio_gpu_base_conf, %struct.virtio_gpu_config, ptr, i32, i32, %struct.MemoryRegion, [16 x %struct.virtio_gpu_scanout], i32, [16 x %struct.virtio_gpu_requested_state] }
%struct.VirtIODevice = type { %struct.DeviceState, ptr, i8, i8, i16, i64, i64, i64, i64, ptr, i16, i32, i32, ptr, %struct.MemoryListener, i16, i8, i8, i8, i8, i8, i8, i8, i8, i8, ptr, ptr, i8, i8, ptr, ptr, %union.anon.1, %struct.EventNotifier, i8 }
%struct.DeviceState = type { %struct.Object, ptr, ptr, i8, i8, i64, ptr, i32, i8, ptr, %struct.NamedGPIOListHead, %struct.NamedClockListHead, %struct.BusStateHead, i32, i32, i32, %struct.ResettableState, ptr, %struct.MemReentrancyGuard }
%struct.Object = type { ptr, ptr, ptr, i32, ptr }
%struct.NamedGPIOListHead = type { ptr }
%struct.NamedClockListHead = type { ptr }
%struct.BusStateHead = type { ptr }
%struct.ResettableState = type { i32, i8, i8 }
%struct.MemReentrancyGuard = type { i8 }
%struct.MemoryListener = type { ptr, ptr, ptr, ptr, ptr, ptr, ptr, ptr, ptr, ptr, ptr, ptr, ptr, ptr, ptr, ptr, ptr, i32, ptr, ptr, %union.anon, %union.anon.0 }
%union.anon = type { %struct.QTailQLink }
%struct.QTailQLink = type { ptr, ptr }
%union.anon.0 = type { %struct.QTailQLink }
%union.anon.1 = type { %struct.QTailQLink }
%struct.EventNotifier = type { i32, i32, i8 }
%struct.virtio_gpu_base_conf = type { i32, i32, i32, i32, i64 }
%struct.virtio_gpu_config = type { i32, i32, i32, i32 }
%struct.MemoryRegion = type { %struct.Object, i8, i8, i8, i8, i8, i8, i8, i8, i8, i8, ptr, ptr, ptr, ptr, ptr, ptr, i32, i128, i64, ptr, i64, i8, i8, i8, i8, i8, ptr, i64, i32, %union.anon.2, %union.anon.3, %union.anon.4, ptr, i32, ptr, ptr, i8 }
%union.anon.2 = type { %struct.QTailQLink }
%union.anon.3 = type { %struct.QTailQLink }
%union.anon.4 = type { %struct.QTailQLink }
%struct.virtio_gpu_scanout = type { ptr, ptr, i32, i32, i32, i32, i32, i32, %struct.virtio_gpu_update_cursor, ptr }
%struct.virtio_gpu_update_cursor = type { %struct.virtio_gpu_ctrl_hdr, %struct.virtio_gpu_cursor_pos, i32, i32, i32, i32 }
%struct.virtio_gpu_ctrl_hdr = type { i32, i32, i64, i32, i8, [3 x i8] }
%struct.virtio_gpu_cursor_pos = type { i32, i32, i32, i32 }
%struct.virtio_gpu_requested_state = type { i16, i16, i32, i32, i32, i32, i32 }

; Function Attrs: nounwind sspstrong uwtable
define internal i32 @virtio_gpu_get_flags(ptr noundef %opaque) #0 {
entry:
  %opaque.addr = alloca ptr, align 8
  %g = alloca ptr, align 8
  %flags = alloca i32, align 4
  store ptr %opaque, ptr %opaque.addr, align 8
  %0 = load ptr, ptr %opaque.addr, align 8
  store ptr %0, ptr %g, align 8
  store i32 0, ptr %flags, align 4
  %1 = load ptr, ptr %g, align 8
  %conf = getelementptr inbounds %struct.VirtIOGPUBase, ptr %1, i32 0, i32 2
  %flags1 = getelementptr inbounds %struct.virtio_gpu_base_conf, ptr %conf, i32 0, i32 1
  %2 = load i32, ptr %flags1, align 4
  %and = and i32 %2, 2
  %tobool = icmp ne i32 %and, 0
  br i1 %tobool, label %if.then, label %if.end

if.then:                                          ; preds = %entry
  %3 = load i32, ptr %flags, align 4
  %or = or i32 %3, 1
  store i32 %or, ptr %flags, align 4
  br label %if.end

if.end:                                           ; preds = %if.then, %entry
  %4 = load ptr, ptr %g, align 8
  %conf2 = getelementptr inbounds %struct.VirtIOGPUBase, ptr %4, i32 0, i32 2
  %flags3 = getelementptr inbounds %struct.virtio_gpu_base_conf, ptr %conf2, i32 0, i32 1
  %5 = load i32, ptr %flags3, align 4
  %and4 = and i32 %5, 16
  %tobool5 = icmp ne i32 %and4, 0
  br i1 %tobool5, label %if.then6, label %if.end8

if.then6:                                         ; preds = %if.end
  %6 = load i32, ptr %flags, align 4
  %or7 = or i32 %6, 2
  store i32 %or7, ptr %flags, align 4
  br label %if.end8

if.end8:                                          ; preds = %if.then6, %if.end
  %7 = load i32, ptr %flags, align 4
  ret i32 %7
}