; Function Attrs: mustprogress nofree norecurse nosync nounwind sspstrong willreturn memory(argmem: read) uwtable
define internal range(i32 0, 4) i32 @virtio_gpu_get_flags(ptr noundef readonly captures(none) %opaque) #3 {
entry:
  %flags1 = getelementptr inbounds nuw i8, ptr %opaque, i64 532
  %0 = load i32, ptr %flags1, align 4
  %and = lshr i32 %0, 1
  %and.lobit = and i32 %and, 1
  %and4 = lshr i32 %0, 3
  %1 = and i32 %and4, 2
  %flags.1 = or disjoint i32 %and.lobit, %1
  ret i32 %flags.1
}